; ModuleID = '34/76.c'
source_filename = "34/76.c"
target datalayout = "e-m:e-p270:32:32-p271:32:32-p272:64:64-i64:64-f80:128-n8:16:32:64-S128"
target triple = "x86_64-pc-linux-gnu"

@.str = private unnamed_addr constant [3 x i8] c"%d\00", align 1
@.str.1 = private unnamed_addr constant [4 x i8] c"End\00", align 1
@.str.2 = private unnamed_addr constant [9 x i8] c"%d/2=%d\0A\00", align 1
@.str.3 = private unnamed_addr constant [5 x i8] c"End\0A\00", align 1
@.str.4 = private unnamed_addr constant [11 x i8] c"%d*3+1=%d\0A\00", align 1

; Function Attrs: noinline nounwind uwtable
define dso_local void @main() #0 {
  %1 = alloca i32, align 4
  %2 = call i32 (i8*, ...) @__isoc99_scanf(i8* getelementptr inbounds ([3 x i8], [3 x i8]* @.str, i64 0, i64 0), i32* %1)
  %3 = load i32, i32* %1, align 4
  %4 = icmp eq i32 %3, 1
  br i1 %4, label %5, label %7

5:                                                ; preds = %0
  %6 = call i32 (i8*, ...) @printf(i8* getelementptr inbounds ([4 x i8], [4 x i8]* @.str.1, i64 0, i64 0))
  br label %40

7:                                                ; preds = %0
  br label %8

8:                                                ; preds = %38, %7
  %9 = load i32, i32* %1, align 4
  %10 = srem i32 %9, 2
  %11 = icmp eq i32 %10, 0
  br i1 %11, label %12, label %24

12:                                               ; preds = %8
  %13 = load i32, i32* %1, align 4
  %14 = sdiv i32 %13, 2
  store i32 %14, i32* %1, align 4
  %15 = load i32, i32* %1, align 4
  %16 = mul nsw i32 2, %15
  %17 = load i32, i32* %1, align 4
  %18 = call i32 (i8*, ...) @printf(i8* getelementptr inbounds ([9 x i8], [9 x i8]* @.str.2, i64 0, i64 0), i32 %16, i32 %17)
  %19 = load i32, i32* %1, align 4
  %20 = icmp eq i32 %19, 1
  br i1 %20, label %21, label %23

21:                                               ; preds = %12
  %22 = call i32 (i8*, ...) @printf(i8* getelementptr inbounds ([5 x i8], [5 x i8]* @.str.3, i64 0, i64 0))
  br label %39

23:                                               ; preds = %12
  br label %38

24:                                               ; preds = %8
  %25 = load i32, i32* %1, align 4
  %26 = mul nsw i32 %25, 3
  %27 = add nsw i32 %26, 1
  store i32 %27, i32* %1, align 4
  %28 = load i32, i32* %1, align 4
  %29 = sub nsw i32 %28, 1
  %30 = sdiv i32 %29, 3
  %31 = load i32, i32* %1, align 4
  %32 = call i32 (i8*, ...) @printf(i8* getelementptr inbounds ([11 x i8], [11 x i8]* @.str.4, i64 0, i64 0), i32 %30, i32 %31)
  %33 = load i32, i32* %1, align 4
  %34 = icmp eq i32 %33, 1
  br i1 %34, label %35, label %37

35:                                               ; preds = %24
  %36 = call i32 (i8*, ...) @printf(i8* getelementptr inbounds ([5 x i8], [5 x i8]* @.str.3, i64 0, i64 0))
  br label %39

37:                                               ; preds = %24
  br label %38

38:                                               ; preds = %37, %23
  br label %8

39:                                               ; preds = %35, %21
  br label %40

40:                                               ; preds = %39, %5
  ret void
}

declare dso_local i32 @__isoc99_scanf(i8*, ...) #1

declare dso_local i32 @printf(i8*, ...) #1


!llvm.module.flags = !{!0}
!llvm.ident = !{!1}

!0 = !{i32 1, !"wchar_size", i32 4}
!1 = !{!"clang version 10.0.0-4ubuntu1 "}
